; Function Attrs: mustprogress uwtable
define dso_local void @_Z13luaL_checkanyP9lua_Statei(ptr noundef %0, i32 noundef %1) local_unnamed_addr #2 {
  %3 = tail call noundef i32 @_Z8lua_typeP9lua_Statei(ptr noundef %0, i32 noundef %1)
  %4 = icmp eq i32 %3, -1
  br i1 %4, label %5, label %6

5:                                                ; preds = %2
  tail call void (ptr, ptr, ...) @_Z11luaL_errorLP9lua_StatePKcz(ptr noundef %0, ptr noundef nonnull @.str.11, i32 noundef %1) #11
  unreachable

6:                                                ; preds = %2
  ret void
}